; Function Attrs: nounwind uwtable
define ptr @l_Lean_Elab_Term_Quotation_precheckIdent___lambda__1(ptr noundef %0, ptr readnone captures(none) %1, ptr readnone captures(none) %2, ptr readnone captures(none) %3, ptr readnone captures(none) %4, ptr noundef %5, ptr noundef %6, ptr noundef %7, ptr noundef %8, ptr noundef %9) local_unnamed_addr #0 {
  %11 = tail call ptr @l_Lean_MessageData_ofName(ptr noundef %0) #4
  %12 = load ptr, ptr @l_Lean_Elab_Term_Quotation_precheckIdent___lambda__1___closed__2, align 8, !tbaa !9
  tail call void @lean_inc_heartbeat() #4
  %13 = tail call noalias ptr @mi_malloc_small(i64 noundef 24) #4
  %14 = icmp eq ptr %13, null
  br i1 %14, label %15, label %lean_alloc_ctor.exit

15:                                               ; preds = %10
  tail call void @lean_internal_panic_out_of_memory() #5
  unreachable

lean_alloc_ctor.exit:                             ; preds = %10
  %16 = getelementptr inbounds nuw i8, ptr %13, i64 4
  store i32 1, ptr %13, align 4, !tbaa !4
  store i32 117571608, ptr %16, align 4
  %17 = getelementptr inbounds nuw i8, ptr %13, i64 8
  store ptr %12, ptr %17, align 8, !tbaa !9
  %18 = getelementptr inbounds nuw i8, ptr %13, i64 16
  store ptr %11, ptr %18, align 8, !tbaa !9
  %19 = load ptr, ptr @l_Lean_Elab_Term_Quotation_precheckIdent___lambda__1___closed__4, align 8, !tbaa !9
  tail call void @lean_inc_heartbeat() #4
  %20 = tail call noalias ptr @mi_malloc_small(i64 noundef 24) #4
  %21 = icmp eq ptr %20, null
  br i1 %21, label %22, label %lean_alloc_ctor.exit19

22:                                               ; preds = %lean_alloc_ctor.exit
  tail call void @lean_internal_panic_out_of_memory() #5
  unreachable

lean_alloc_ctor.exit19:                           ; preds = %lean_alloc_ctor.exit
  %23 = getelementptr inbounds nuw i8, ptr %20, i64 4
  store i32 1, ptr %20, align 4, !tbaa !4
  store i32 117571608, ptr %23, align 4
  %24 = getelementptr inbounds nuw i8, ptr %20, i64 8
  store ptr %13, ptr %24, align 8, !tbaa !9
  %25 = getelementptr inbounds nuw i8, ptr %20, i64 16
  store ptr %19, ptr %25, align 8, !tbaa !9
  %26 = tail call ptr @l_Lean_throwError___at_Lean_Elab_Term_Quotation_precheck___spec__10(ptr noundef nonnull %20, ptr poison, ptr poison, ptr poison, ptr noundef %5, ptr noundef %6, ptr noundef %7, ptr noundef %8, ptr noundef %9)
  ret ptr %26
}